; Function Attrs: mustprogress uwtable
define noundef i32 @paramCldrVersion(ptr readnone captures(none) %0, ptr noundef %1, i32 noundef %2, ptr noundef %3) #1 {
  %5 = alloca [200 x i8], align 16
  %6 = alloca [4 x i8], align 1
  %7 = load i32, ptr %3, align 4, !tbaa !13
  %8 = icmp slt i32 %7, 1
  br i1 %8, label %9, label %27

9:                                                ; preds = %4
  call void @llvm.lifetime.start.p0(i64 200, ptr nonnull %5) #26
  call void @llvm.memset.p0.i64(ptr noundef nonnull align 16 dereferenceable(200) %5, i8 0, i64 200, i1 false)
  call void @llvm.lifetime.start.p0(i64 4, ptr nonnull %6) #26
  call void @ulocdata_getCLDRVersion_77(ptr noundef nonnull %6, ptr noundef nonnull %3)
  %10 = load i32, ptr %3, align 4, !tbaa !13
  %11 = icmp sgt i32 %10, 0
  br i1 %11, label %26, label %12

12:                                               ; preds = %9
  call void @u_versionToString_77(ptr noundef nonnull %6, ptr noundef nonnull %5)
  %13 = load i32, ptr %3, align 4, !tbaa !13
  %14 = icmp sgt i32 %13, 0
  br i1 %14, label %18, label %15

15:                                               ; preds = %12
  %16 = call i64 @strlen(ptr noundef nonnull dereferenceable(1) %5) #29
  %17 = trunc i64 %16 to i32
  %.not22.i = icmp eq ptr %1, null
  br i1 %.not22.i, label %_ZL20stringToStringBufferPciPKcP10UErrorCode.exit, label %.sink.split.i

18:                                               ; preds = %12
  %19 = call ptr @u_errorName_77(i32 noundef %13)
  %20 = call i64 @strlen(ptr noundef nonnull dereferenceable(1) %19) #29
  %21 = trunc i64 %20 to i32
  %.not21.i = icmp eq ptr %1, null
  br i1 %.not21.i, label %_ZL20stringToStringBufferPciPKcP10UErrorCode.exit, label %.sink.split.i

.sink.split.i:                                    ; preds = %18, %15
  %.sink25.i = phi i32 [ %17, %15 ], [ %21, %18 ]
  %.sink.i = phi ptr [ %5, %15 ], [ %19, %18 ]
  %22 = call i32 @uprv_min_77(i32 noundef %.sink25.i, i32 noundef %2)
  %23 = sext i32 %22 to i64
  %24 = call ptr @strncpy(ptr noundef nonnull %1, ptr noundef nonnull %.sink.i, i64 noundef %23) #26
  br label %_ZL20stringToStringBufferPciPKcP10UErrorCode.exit

_ZL20stringToStringBufferPciPKcP10UErrorCode.exit: ; preds = %15, %18, %.sink.split.i
  %.018.i = phi i32 [ %17, %15 ], [ %21, %18 ], [ %.sink25.i, %.sink.split.i ]
  %25 = call noundef i32 @u_terminateChars_77(ptr noundef %1, i32 noundef %2, i32 noundef %.018.i, ptr noundef nonnull %3)
  br label %26

26:                                               ; preds = %9, %_ZL20stringToStringBufferPciPKcP10UErrorCode.exit
  %.1 = phi i32 [ %25, %_ZL20stringToStringBufferPciPKcP10UErrorCode.exit ], [ 0, %9 ]
  call void @llvm.lifetime.end.p0(i64 4, ptr nonnull %6) #26
  call void @llvm.lifetime.end.p0(i64 200, ptr nonnull %5) #26
  br label %27

27:                                               ; preds = %4, %26
  %.0 = phi i32 [ %.1, %26 ], [ 0, %4 ]
  ret i32 %.0
}